; Function Attrs: mustprogress nounwind uwtable
define internal void @_ZN6v8impl12_GLOBAL__N_115BufferFinalizer22FinalizeBufferCallbackEPcPv(ptr noundef %data, ptr noundef %hint) #3 align 2 {
entry:
  %finalize_data_ = getelementptr inbounds i8, ptr %hint, i64 24
  store ptr %data, ptr %finalize_data_, align 8
  %finalize_callback_ = getelementptr inbounds i8, ptr %hint, i64 16
  %0 = load ptr, ptr %finalize_callback_, align 8
  %cmp = icmp eq ptr %0, null
  br i1 %cmp, label %_ZNSt10unique_ptrIN6v8impl12_GLOBAL__N_115BufferFinalizerENS2_7DeleterEED2Ev.exit, label %if.end

if.end:                                           ; preds = %entry
  %env_ = getelementptr inbounds i8, ptr %hint, i64 8
  %1 = load ptr, ptr %env_, align 8
  %finalize_hint_ = getelementptr inbounds i8, ptr %hint, i64 32
  %2 = load ptr, ptr %finalize_hint_, align 8
  %vtable = load ptr, ptr %1, align 8
  %vfn = getelementptr inbounds i8, ptr %vtable, i64 8
  %3 = load ptr, ptr %vfn, align 8
  tail call void %3(ptr noundef nonnull align 8 dereferenceable(189) %1, ptr noundef nonnull %0, ptr noundef %data, ptr noundef %2) #21
  br label %_ZNSt10unique_ptrIN6v8impl12_GLOBAL__N_115BufferFinalizerENS2_7DeleterEED2Ev.exit

_ZNSt10unique_ptrIN6v8impl12_GLOBAL__N_115BufferFinalizerENS2_7DeleterEED2Ev.exit: ; preds = %entry, %if.end
  %vtable.i.i = load ptr, ptr %hint, align 8
  %vfn.i.i = getelementptr inbounds i8, ptr %vtable.i.i, i64 8
  %4 = load ptr, ptr %vfn.i.i, align 8
  tail call void %4(ptr noundef nonnull align 8 dereferenceable(40) %hint) #21
  ret void
}